; Function Attrs: mustprogress nounwind uwtable
define hidden void @_ZN18C2EntryBarrierStub4emitER17C2_MacroAssembler(ptr noundef nonnull align 8 dereferenceable(128) %0, ptr noundef nonnull align 8 dereferenceable(40) %1) unnamed_addr #1 align 2 {
  %3 = alloca %class.AddressLiteral, align 8
  %4 = alloca %class.RuntimeAddress, align 8
  %5 = getelementptr inbounds i8, ptr %0, i64 8
  tail call void @_ZN17AbstractAssembler4bindER5Label(ptr noundef nonnull align 8 dereferenceable(24) %1, ptr noundef nonnull align 8 dereferenceable(33) %5) #5
  %6 = load ptr, ptr @_ZN12StubRoutines21_method_entry_barrierE, align 8
  call void @_ZN14AddressLiteralC2EPhN9relocInfo9relocTypeE(ptr noundef nonnull align 8 dereferenceable(56) %4, ptr noundef %6, i32 noundef 6) #5
  %7 = load ptr, ptr %4, align 8
  %8 = getelementptr inbounds i8, ptr %7, i64 16
  %9 = load ptr, ptr %8, align 8
  call void %9(ptr noundef nonnull align 8 dereferenceable(20) %4, ptr noundef nonnull align 8 dereferenceable(40) %3) #5
  %10 = getelementptr inbounds i8, ptr %3, i64 40
  %11 = getelementptr inbounds i8, ptr %4, i64 40
  call void @llvm.memcpy.p0.p0.i64(ptr noundef nonnull align 8 dereferenceable(16) %10, ptr noundef nonnull align 8 dereferenceable(16) %11, i64 16, i1 false)
  call void @_ZN14MacroAssembler4callE14AddressLiteral8Register(ptr noundef nonnull align 8 dereferenceable(40) %1, ptr noundef nonnull %3, i32 0) #5
  %12 = getelementptr inbounds i8, ptr %0, i64 48
  call void @_ZN9Assembler3jmpER5Labelb(ptr noundef nonnull align 8 dereferenceable(40) %1, ptr noundef nonnull align 8 dereferenceable(33) %12, i1 noundef zeroext false) #5
  ret void
}